target datalayout = "e-m:e-p270:32:32-p271:32:32-p272:64:64-i64:64-i128:128-f80:128-n8:16:32:64-S128"
target triple = "x86_64-pc-linux-gnu"

%"class.std::__1::__fs::filesystem::filesystem_error" = type { %"class.std::__1::system_error", %"class.std::__1::shared_ptr" }
%"class.std::__1::system_error" = type { %"class.std::runtime_error", %"class.std::__1::error_code" }
%"class.std::runtime_error" = type { %"class.std::exception", %"class.std::__1::__libcpp_refstring" }
%"class.std::exception" = type { ptr }
%"class.std::__1::__libcpp_refstring" = type { ptr }
%"class.std::__1::error_code" = type { i32, ptr }
%"class.std::__1::shared_ptr" = type { ptr, ptr }
%"class.std::__1::__shared_count" = type { ptr, i64 }

; Function Attrs: inlinehint mustprogress nounwind uwtable
define linkonce_odr hidden noundef i64 @_ZNSt3__134__libcpp_atomic_refcount_decrementB8ne210000IlEET_RS1_(ptr noundef nonnull align 8 dereferenceable(8) %0) #6 comdat {
  %2 = alloca ptr, align 8
  %3 = alloca i64, align 8
  %4 = alloca i64, align 8
  store ptr %0, ptr %2, align 8, !tbaa !56
  %5 = load ptr, ptr %2, align 8, !tbaa !56
  store i64 -1, ptr %3, align 8, !tbaa !38
  %6 = load i64, ptr %3, align 8
  %7 = atomicrmw add ptr %5, i64 %6 acq_rel, align 8
  %8 = add i64 %7, %6
  store i64 %8, ptr %4, align 8
  %9 = load i64, ptr %4, align 8, !tbaa !38
  ret i64 %9
}

; Function Attrs: mustprogress nounwind uwtable
define linkonce_odr hidden noundef zeroext i1 @_ZNSt3__114__shared_count16__release_sharedB8ne210000Ev(ptr noundef nonnull align 8 dereferenceable(16) %0) #0 comdat align 2 {
  %2 = alloca i1, align 1
  %3 = alloca ptr, align 8
  store ptr %0, ptr %3, align 8, !tbaa !73
  %4 = load ptr, ptr %3, align 8
  %5 = getelementptr inbounds nuw %"class.std::__1::__shared_count", ptr %4, i32 0, i32 1
  %6 = call noundef i64 @_ZNSt3__134__libcpp_atomic_refcount_decrementB8ne210000IlEET_RS1_(ptr noundef nonnull align 8 dereferenceable(8) %5) #19
  %7 = icmp eq i64 %6, -1
  br i1 %7, label %8, label %12

8:                                                ; preds = %1
  %9 = load ptr, ptr %4, align 8, !tbaa !9
  %10 = getelementptr inbounds ptr, ptr %9, i64 2
  %11 = load ptr, ptr %10, align 8
  call void %11(ptr noundef nonnull align 8 dereferenceable(16) %4) #19
  store i1 true, ptr %2, align 1
  br label %13

12:                                               ; preds = %1
  store i1 false, ptr %2, align 1
  br label %13

13:                                               ; preds = %12, %8
  %14 = load i1, ptr %2, align 1
  ret i1 %14
}

; Function Attrs: mustprogress nounwind uwtable
define linkonce_odr hidden void @_ZNSt3__119__shared_weak_count16__release_sharedB8ne210000Ev(ptr noundef nonnull align 8 dereferenceable(24) %0) #0 comdat align 2 {
  %2 = alloca ptr, align 8
  store ptr %0, ptr %2, align 8, !tbaa !72
  %3 = load ptr, ptr %2, align 8
  %4 = call noundef zeroext i1 @_ZNSt3__114__shared_count16__release_sharedB8ne210000Ev(ptr noundef nonnull align 8 dereferenceable(16) %3) #19
  br i1 %4, label %5, label %6

5:                                                ; preds = %1
  call void @_ZNSt3__119__shared_weak_count14__release_weakEv(ptr noundef nonnull align 8 dereferenceable(24) %3) #19
  br label %6

6:                                                ; preds = %5, %1
  ret void
}

; Function Attrs: mustprogress nounwind uwtable
define linkonce_odr hidden void @_ZNSt3__110shared_ptrINS_4__fs10filesystem16filesystem_error8_StorageEED2B8ne210000Ev(ptr noundef nonnull align 8 dereferenceable(16) %0) unnamed_addr #0 comdat align 2 {
  %2 = alloca ptr, align 8
  store ptr %0, ptr %2, align 8, !tbaa !11
  %3 = load ptr, ptr %2, align 8
  %4 = getelementptr inbounds nuw %"class.std::__1::shared_ptr", ptr %3, i32 0, i32 1
  %5 = load ptr, ptr %4, align 8, !tbaa !13
  %6 = icmp ne ptr %5, null
  br i1 %6, label %7, label %10

7:                                                ; preds = %1
  %8 = getelementptr inbounds nuw %"class.std::__1::shared_ptr", ptr %3, i32 0, i32 1
  %9 = load ptr, ptr %8, align 8, !tbaa !13
  call void @_ZNSt3__119__shared_weak_count16__release_sharedB8ne210000Ev(ptr noundef nonnull align 8 dereferenceable(24) %9) #19
  br label %10

10:                                               ; preds = %7, %1
  ret void
}

; Function Attrs: mustprogress nounwind uwtable
define dso_local void @_ZNSt3__14__fs10filesystem16filesystem_errorD2Ev(ptr noundef nonnull align 8 dereferenceable(48) %0) unnamed_addr #0 align 2 {
  %2 = alloca ptr, align 8
  store ptr %0, ptr %2, align 8, !tbaa !4
  %3 = load ptr, ptr %2, align 8
  store ptr getelementptr inbounds inrange(-16, 24) ({ [5 x ptr] }, ptr @_ZTVNSt3__14__fs10filesystem16filesystem_errorE, i32 0, i32 0, i32 2), ptr %3, align 8, !tbaa !9
  %4 = getelementptr inbounds nuw %"class.std::__1::__fs::filesystem::filesystem_error", ptr %3, i32 0, i32 1
  call void @_ZNSt3__110shared_ptrINS_4__fs10filesystem16filesystem_error8_StorageEED2B8ne210000Ev(ptr noundef nonnull align 8 dereferenceable(16) %4) #19
  call void @_ZNSt3__112system_errorD2Ev(ptr noundef nonnull align 8 dereferenceable(32) %3) #19
  ret void
}